; Function Attrs: nounwind uwtable
define hidden void @zim_ReflectionEnum_hasCase(ptr noundef readonly captures(none) %0, ptr noundef writeonly captures(none) %1) #0 {
  %3 = alloca ptr, align 8
  call void @llvm.lifetime.start.p0(i64 8, ptr nonnull %3) #13
  %4 = getelementptr inbounds nuw i8, ptr %0, i64 44
  %5 = load i32, ptr %4, align 4, !tbaa !26
  %6 = call i32 (i32, ptr, ...) @zend_parse_parameters(i32 noundef %5, ptr noundef nonnull @.str.44, ptr noundef nonnull %3) #13
  %7 = icmp eq i32 %6, -1
  br i1 %7, label %8, label %11

8:                                                ; preds = %2
  %9 = load ptr, ptr getelementptr inbounds nuw (i8, ptr @executor_globals, i64 960), align 8, !tbaa !39
  %10 = icmp ne ptr %9, null
  call void @llvm.assume(i1 %10)
  br label %40

11:                                               ; preds = %2
  %12 = getelementptr inbounds nuw i8, ptr %0, i64 32
  %13 = load ptr, ptr %12, align 8, !tbaa !26
  %14 = getelementptr inbounds i8, ptr %13, i64 -24
  %15 = load ptr, ptr %14, align 8, !tbaa !27
  %16 = icmp eq ptr %15, null
  br i1 %16, label %17, label %27

17:                                               ; preds = %11
  %18 = load ptr, ptr getelementptr inbounds nuw (i8, ptr @executor_globals, i64 960), align 8, !tbaa !39
  %.not11 = icmp eq ptr %18, null
  br i1 %.not11, label %24, label %19

19:                                               ; preds = %17
  %20 = getelementptr inbounds nuw i8, ptr %18, i64 16
  %21 = load ptr, ptr %20, align 8, !tbaa !34
  %22 = load ptr, ptr @reflection_exception_ptr, align 8, !tbaa !38
  %23 = icmp eq ptr %21, %22
  br i1 %23, label %40, label %24

24:                                               ; preds = %19, %17
  call void (ptr, ptr, ...) @zend_throw_error(ptr noundef null, ptr noundef nonnull @.str.10) #13
  %25 = load ptr, ptr getelementptr inbounds nuw (i8, ptr @executor_globals, i64 960), align 8, !tbaa !39
  %26 = icmp ne ptr %25, null
  call void @llvm.assume(i1 %26)
  br label %40

27:                                               ; preds = %11
  %28 = getelementptr inbounds nuw i8, ptr %15, i64 176
  %29 = load ptr, ptr %3, align 8, !tbaa !68
  %30 = call ptr @zend_hash_find(ptr noundef nonnull %28, ptr noundef %29) #13
  %.not.i = icmp eq ptr %30, null
  br i1 %.not.i, label %31, label %33

31:                                               ; preds = %27
  %32 = getelementptr inbounds nuw i8, ptr %1, i64 8
  store i32 2, ptr %32, align 8, !tbaa !26
  br label %40

33:                                               ; preds = %27
  %34 = load ptr, ptr %30, align 8, !tbaa !26, !nonnull !74, !noundef !74
  %35 = getelementptr inbounds nuw i8, ptr %34, i64 12
  %36 = load i32, ptr %35, align 4, !tbaa !26
  %37 = and i32 %36, 64
  %.not = icmp eq i32 %37, 0
  %38 = select i1 %.not, i32 2, i32 3
  %39 = getelementptr inbounds nuw i8, ptr %1, i64 8
  store i32 %38, ptr %39, align 8, !tbaa !26
  br label %40

40:                                               ; preds = %31, %33, %19, %24, %8
  call void @llvm.lifetime.end.p0(i64 8, ptr nonnull %3) #13
  ret void
}